; Function Attrs: mustprogress uwtable
define hidden void @_ZN7nanogui10RenderPass12set_viewportERKNS_5ArrayIiLm2EEES4_(ptr nocapture noundef nonnull align 8 dereferenceable(173) %0, ptr nocapture noundef nonnull readonly align 4 dereferenceable(8) %1, ptr nocapture noundef nonnull readonly align 4 dereferenceable(8) %2) local_unnamed_addr #5 align 2 {
  %4 = getelementptr inbounds i8, ptr %0, i64 80
  %5 = load i64, ptr %1, align 4
  store i64 %5, ptr %4, align 8
  %6 = getelementptr inbounds i8, ptr %0, i64 88
  %7 = load i64, ptr %2, align 4
  store i64 %7, ptr %6, align 8
  %8 = getelementptr inbounds i8, ptr %0, i64 128
  %9 = load i8, ptr %8, align 8
  %10 = and i8 %9, 1
  %.not = icmp eq i8 %10, 0
  br i1 %.not, label %35, label %11

11:                                               ; preds = %3
  %12 = trunc i64 %7 to i32
  %13 = trunc i64 %5 to i32
  %14 = lshr i64 %5, 32
  %15 = trunc i64 %14 to i32
  %16 = lshr i64 %7, 32
  %17 = trunc i64 %16 to i32
  %18 = getelementptr inbounds i8, ptr %0, i64 100
  %19 = load i32, ptr %18, align 4
  %20 = getelementptr inbounds i8, ptr %0, i64 92
  %21 = add i32 %17, %15
  %22 = sub i32 %19, %21
  tail call void @glViewport(i32 noundef %13, i32 noundef %22, i32 noundef %12, i32 noundef %17)
  %23 = load i32, ptr %4, align 8
  %24 = load i32, ptr %6, align 8
  %25 = load i32, ptr %20, align 4
  tail call void @glScissor(i32 noundef %23, i32 noundef %22, i32 noundef %24, i32 noundef %25)
  br label %26

26:                                               ; preds = %26, %11
  %.not8.i = phi i1 [ true, %11 ], [ false, %26 ]
  %.07.i = phi i64 [ 0, %11 ], [ 1, %26 ]
  %27 = getelementptr inbounds [2 x i32], ptr %4, i64 0, i64 %.07.i
  %28 = load i32, ptr %27, align 4
  %.not.i = icmp eq i32 %28, 0
  %or.cond.i = and i1 %.not8.i, %.not.i
  br i1 %or.cond.i, label %26, label %_ZNK7nanogui5ArrayIiLm2EEeqERKS1_.exit, !llvm.loop !13

_ZNK7nanogui5ArrayIiLm2EEeqERKS1_.exit:           ; preds = %26
  %29 = getelementptr inbounds i8, ptr %0, i64 96
  br i1 %.not.i, label %.preheader, label %.critedge

.preheader:                                       ; preds = %_ZNK7nanogui5ArrayIiLm2EEeqERKS1_.exit, %.preheader
  %.not8.i4 = phi i1 [ false, %.preheader ], [ true, %_ZNK7nanogui5ArrayIiLm2EEeqERKS1_.exit ]
  %.07.i5 = phi i64 [ 1, %.preheader ], [ 0, %_ZNK7nanogui5ArrayIiLm2EEeqERKS1_.exit ]
  %30 = getelementptr inbounds [2 x i32], ptr %6, i64 0, i64 %.07.i5
  %31 = load i32, ptr %30, align 4
  %32 = getelementptr inbounds [2 x i32], ptr %29, i64 0, i64 %.07.i5
  %33 = load i32, ptr %32, align 4
  %.not.i6 = icmp eq i32 %31, %33
  %or.cond.i7 = and i1 %.not8.i4, %.not.i6
  br i1 %or.cond.i7, label %.preheader, label %_ZNK7nanogui5ArrayIiLm2EEeqERKS1_.exit8, !llvm.loop !13

_ZNK7nanogui5ArrayIiLm2EEeqERKS1_.exit8:          ; preds = %.preheader
  br i1 %.not.i6, label %34, label %.critedge

34:                                               ; preds = %_ZNK7nanogui5ArrayIiLm2EEeqERKS1_.exit8
  tail call void @glDisable(i32 noundef 3089)
  br label %35

.critedge:                                        ; preds = %_ZNK7nanogui5ArrayIiLm2EEeqERKS1_.exit, %_ZNK7nanogui5ArrayIiLm2EEeqERKS1_.exit8
  tail call void @glEnable(i32 noundef 3089)
  br label %35

35:                                               ; preds = %34, %.critedge, %3
  ret void
}